; ModuleID = '44/881.c'
source_filename = "44/881.c"
target datalayout = "e-m:e-p270:32:32-p271:32:32-p272:64:64-i64:64-f80:128-n8:16:32:64-S128"
target triple = "x86_64-pc-linux-gnu"

@.str = private unnamed_addr constant [3 x i8] c"%d\00", align 1
@.str.1 = private unnamed_addr constant [4 x i8] c"%d\0A\00", align 1

; Function Attrs: noinline nounwind uwtable
define dso_local i32 @main() #0 {
  %1 = alloca i32, align 4
  %2 = alloca i32, align 4
  %3 = alloca i32, align 4
  %4 = alloca i32, align 4
  store i32 0, i32* %1, align 4
  store i32 0, i32* %4, align 4
  br label %5

5:                                                ; preds = %14, %0
  %6 = load i32, i32* %4, align 4
  %7 = icmp sle i32 %6, 5
  br i1 %7, label %8, label %17

8:                                                ; preds = %5
  %9 = call i32 (i8*, ...) @__isoc99_scanf(i8* getelementptr inbounds ([3 x i8], [3 x i8]* @.str, i64 0, i64 0), i32* %2)
  %10 = load i32, i32* %2, align 4
  %11 = call i32 @reverse(i32 %10)
  store i32 %11, i32* %3, align 4
  %12 = load i32, i32* %3, align 4
  %13 = call i32 (i8*, ...) @printf(i8* getelementptr inbounds ([4 x i8], [4 x i8]* @.str.1, i64 0, i64 0), i32 %12)
  br label %14

14:                                               ; preds = %8
  %15 = load i32, i32* %4, align 4
  %16 = add nsw i32 %15, 1
  store i32 %16, i32* %4, align 4
  br label %5

17:                                               ; preds = %5
  %18 = load i32, i32* %1, align 4
  ret i32 %18
}

declare dso_local i32 @__isoc99_scanf(i8*, ...) #1

; Function Attrs: noinline nounwind uwtable
define dso_local i32 @reverse(i32 %0) #0 {
  %2 = alloca i32, align 4
  %3 = alloca i32, align 4
  %4 = alloca i32, align 4
  %5 = alloca i32, align 4
  %6 = alloca i32, align 4
  store i32 %0, i32* %3, align 4
  store i32 0, i32* %4, align 4
  %7 = load i32, i32* %3, align 4
  %8 = icmp sgt i32 %7, 0
  br i1 %8, label %9, label %24

9:                                                ; preds = %1
  br label %10

10:                                               ; preds = %13, %9
  %11 = load i32, i32* %3, align 4
  %12 = icmp sgt i32 %11, 0
  br i1 %12, label %13, label %22

13:                                               ; preds = %10
  %14 = load i32, i32* %3, align 4
  %15 = srem i32 %14, 10
  store i32 %15, i32* %5, align 4
  %16 = load i32, i32* %4, align 4
  %17 = mul nsw i32 %16, 10
  %18 = load i32, i32* %5, align 4
  %19 = add nsw i32 %17, %18
  store i32 %19, i32* %4, align 4
  %20 = load i32, i32* %3, align 4
  %21 = sdiv i32 %20, 10
  store i32 %21, i32* %3, align 4
  br label %10

22:                                               ; preds = %10
  %23 = load i32, i32* %4, align 4
  store i32 %23, i32* %2, align 4
  br label %52

24:                                               ; preds = %1
  %25 = load i32, i32* %3, align 4
  %26 = icmp slt i32 %25, 0
  br i1 %26, label %27, label %47

27:                                               ; preds = %24
  br label %28

28:                                               ; preds = %31, %27
  %29 = load i32, i32* %3, align 4
  %30 = icmp slt i32 %29, 0
  br i1 %30, label %31, label %44

31:                                               ; preds = %28
  %32 = load i32, i32* %3, align 4
  %33 = sub nsw i32 0, %32
  store i32 %33, i32* %6, align 4
  %34 = load i32, i32* %6, align 4
  %35 = srem i32 %34, 10
  store i32 %35, i32* %5, align 4
  %36 = load i32, i32* %4, align 4
  %37 = mul nsw i32 %36, 10
  %38 = load i32, i32* %5, align 4
  %39 = add nsw i32 %37, %38
  store i32 %39, i32* %4, align 4
  %40 = load i32, i32* %6, align 4
  %41 = sdiv i32 %40, 10
  store i32 %41, i32* %6, align 4
  %42 = load i32, i32* %6, align 4
  %43 = sub nsw i32 0, %42
  store i32 %43, i32* %3, align 4
  br label %28

44:                                               ; preds = %28
  %45 = load i32, i32* %4, align 4
  %46 = sub nsw i32 0, %45
  store i32 %46, i32* %2, align 4
  br label %52

47:                                               ; preds = %24
  %48 = load i32, i32* %3, align 4
  %49 = icmp eq i32 %48, 0
  br i1 %49, label %50, label %52

50:                                               ; preds = %47
  %51 = load i32, i32* %3, align 4
  store i32 %51, i32* %2, align 4
  br label %52

52:                                               ; preds = %22, %44, %50, %47
  %53 = load i32, i32* %2, align 4
  ret i32 %53
}

declare dso_local i32 @printf(i8*, ...) #1


!llvm.module.flags = !{!0}
!llvm.ident = !{!1}

!0 = !{i32 1, !"wchar_size", i32 4}
!1 = !{!"clang version 10.0.0-4ubuntu1 "}
