; ModuleID = 'source-C-CXX/43/881.c'
source_filename = "source-C-CXX/43/881.c"
target datalayout = "e-m:e-p270:32:32-p271:32:32-p272:64:64-i64:64-f80:128-n8:16:32:64-S128"
target triple = "x86_64-pc-linux-gnu"

@.str = private unnamed_addr constant [3 x i8] c"%d\00", align 1
@.str.1 = private unnamed_addr constant [4 x i8] c"%d\0A\00", align 1

; Function Attrs: nofree nounwind sspstrong uwtable
define dso_local i32 @main() local_unnamed_addr #0 {
  %1 = alloca i32, align 4
  %2 = bitcast i32* %1 to i8*
  call void @llvm.lifetime.start.p0i8(i64 4, i8* nonnull %2) #4
  %3 = call i32 (i8*, ...) @__isoc99_scanf(i8* getelementptr inbounds ([3 x i8], [3 x i8]* @.str, i64 0, i64 0), i32* nonnull %1)
  %4 = load i32, i32* %1, align 4, !tbaa !5
  %5 = icmp sgt i32 %4, 0
  br i1 %5, label %6, label %14

6:                                                ; preds = %0, %6
  %7 = phi i32 [ %11, %6 ], [ 0, %0 ]
  %8 = phi i32 [ %12, %6 ], [ %4, %0 ]
  %9 = urem i32 %8, 10
  %10 = mul nsw i32 %7, 10
  %11 = add nsw i32 %9, %10
  %12 = udiv i32 %8, 10
  %13 = icmp ult i32 %8, 10
  br i1 %13, label %28, label %6, !llvm.loop !9

14:                                               ; preds = %0
  %15 = icmp slt i32 %4, 0
  br i1 %15, label %16, label %28

16:                                               ; preds = %14, %16
  %17 = phi i32 [ %22, %16 ], [ 0, %14 ]
  %18 = phi i32 [ %24, %16 ], [ %4, %14 ]
  %19 = sub i32 0, %18
  %20 = urem i32 %19, 10
  %21 = mul nsw i32 %17, 10
  %22 = add i32 %20, %21
  %23 = udiv i32 %19, 10
  %24 = sub nsw i32 0, %23
  %25 = icmp ult i32 %19, 10
  br i1 %25, label %26, label %16, !llvm.loop !11

26:                                               ; preds = %16
  %27 = sub nsw i32 0, %22
  br label %28

28:                                               ; preds = %6, %14, %26
  %29 = phi i32 [ %27, %26 ], [ 0, %14 ], [ %11, %6 ]
  %30 = call i32 (i8*, ...) @printf(i8* nonnull dereferenceable(1) getelementptr inbounds ([4 x i8], [4 x i8]* @.str.1, i64 0, i64 0), i32 %29)
  %31 = call i32 (i8*, ...) @__isoc99_scanf(i8* getelementptr inbounds ([3 x i8], [3 x i8]* @.str, i64 0, i64 0), i32* nonnull %1)
  %32 = load i32, i32* %1, align 4, !tbaa !5
  %33 = icmp sgt i32 %32, 0
  br i1 %33, label %48, label %34

34:                                               ; preds = %28
  %35 = icmp slt i32 %32, 0
  br i1 %35, label %36, label %56

36:                                               ; preds = %34, %36
  %37 = phi i32 [ %42, %36 ], [ 0, %34 ]
  %38 = phi i32 [ %44, %36 ], [ %32, %34 ]
  %39 = sub i32 0, %38
  %40 = urem i32 %39, 10
  %41 = mul nsw i32 %37, 10
  %42 = add i32 %40, %41
  %43 = udiv i32 %39, 10
  %44 = sub nsw i32 0, %43
  %45 = icmp ult i32 %39, 10
  br i1 %45, label %46, label %36, !llvm.loop !11

46:                                               ; preds = %36
  %47 = sub nsw i32 0, %42
  br label %56

48:                                               ; preds = %28, %48
  %49 = phi i32 [ %53, %48 ], [ 0, %28 ]
  %50 = phi i32 [ %54, %48 ], [ %32, %28 ]
  %51 = urem i32 %50, 10
  %52 = mul nsw i32 %49, 10
  %53 = add nsw i32 %51, %52
  %54 = udiv i32 %50, 10
  %55 = icmp ult i32 %50, 10
  br i1 %55, label %56, label %48, !llvm.loop !9

56:                                               ; preds = %48, %46, %34
  %57 = phi i32 [ %47, %46 ], [ 0, %34 ], [ %53, %48 ]
  %58 = call i32 (i8*, ...) @printf(i8* nonnull dereferenceable(1) getelementptr inbounds ([4 x i8], [4 x i8]* @.str.1, i64 0, i64 0), i32 %57)
  %59 = call i32 (i8*, ...) @__isoc99_scanf(i8* getelementptr inbounds ([3 x i8], [3 x i8]* @.str, i64 0, i64 0), i32* nonnull %1)
  %60 = load i32, i32* %1, align 4, !tbaa !5
  %61 = icmp sgt i32 %60, 0
  br i1 %61, label %76, label %62

62:                                               ; preds = %56
  %63 = icmp slt i32 %60, 0
  br i1 %63, label %64, label %84

64:                                               ; preds = %62, %64
  %65 = phi i32 [ %70, %64 ], [ 0, %62 ]
  %66 = phi i32 [ %72, %64 ], [ %60, %62 ]
  %67 = sub i32 0, %66
  %68 = urem i32 %67, 10
  %69 = mul nsw i32 %65, 10
  %70 = add i32 %68, %69
  %71 = udiv i32 %67, 10
  %72 = sub nsw i32 0, %71
  %73 = icmp ult i32 %67, 10
  br i1 %73, label %74, label %64, !llvm.loop !11

74:                                               ; preds = %64
  %75 = sub nsw i32 0, %70
  br label %84

76:                                               ; preds = %56, %76
  %77 = phi i32 [ %81, %76 ], [ 0, %56 ]
  %78 = phi i32 [ %82, %76 ], [ %60, %56 ]
  %79 = urem i32 %78, 10
  %80 = mul nsw i32 %77, 10
  %81 = add nsw i32 %79, %80
  %82 = udiv i32 %78, 10
  %83 = icmp ult i32 %78, 10
  br i1 %83, label %84, label %76, !llvm.loop !9

84:                                               ; preds = %76, %74, %62
  %85 = phi i32 [ %75, %74 ], [ 0, %62 ], [ %81, %76 ]
  %86 = call i32 (i8*, ...) @printf(i8* nonnull dereferenceable(1) getelementptr inbounds ([4 x i8], [4 x i8]* @.str.1, i64 0, i64 0), i32 %85)
  %87 = call i32 (i8*, ...) @__isoc99_scanf(i8* getelementptr inbounds ([3 x i8], [3 x i8]* @.str, i64 0, i64 0), i32* nonnull %1)
  %88 = load i32, i32* %1, align 4, !tbaa !5
  %89 = icmp sgt i32 %88, 0
  br i1 %89, label %104, label %90

90:                                               ; preds = %84
  %91 = icmp slt i32 %88, 0
  br i1 %91, label %92, label %112

92:                                               ; preds = %90, %92
  %93 = phi i32 [ %98, %92 ], [ 0, %90 ]
  %94 = phi i32 [ %100, %92 ], [ %88, %90 ]
  %95 = sub i32 0, %94
  %96 = urem i32 %95, 10
  %97 = mul nsw i32 %93, 10
  %98 = add i32 %96, %97
  %99 = udiv i32 %95, 10
  %100 = sub nsw i32 0, %99
  %101 = icmp ult i32 %95, 10
  br i1 %101, label %102, label %92, !llvm.loop !11

102:                                              ; preds = %92
  %103 = sub nsw i32 0, %98
  br label %112

104:                                              ; preds = %84, %104
  %105 = phi i32 [ %109, %104 ], [ 0, %84 ]
  %106 = phi i32 [ %110, %104 ], [ %88, %84 ]
  %107 = urem i32 %106, 10
  %108 = mul nsw i32 %105, 10
  %109 = add nsw i32 %107, %108
  %110 = udiv i32 %106, 10
  %111 = icmp ult i32 %106, 10
  br i1 %111, label %112, label %104, !llvm.loop !9

112:                                              ; preds = %104, %102, %90
  %113 = phi i32 [ %103, %102 ], [ 0, %90 ], [ %109, %104 ]
  %114 = call i32 (i8*, ...) @printf(i8* nonnull dereferenceable(1) getelementptr inbounds ([4 x i8], [4 x i8]* @.str.1, i64 0, i64 0), i32 %113)
  %115 = call i32 (i8*, ...) @__isoc99_scanf(i8* getelementptr inbounds ([3 x i8], [3 x i8]* @.str, i64 0, i64 0), i32* nonnull %1)
  %116 = load i32, i32* %1, align 4, !tbaa !5
  %117 = icmp sgt i32 %116, 0
  br i1 %117, label %132, label %118

118:                                              ; preds = %112
  %119 = icmp slt i32 %116, 0
  br i1 %119, label %120, label %140

120:                                              ; preds = %118, %120
  %121 = phi i32 [ %126, %120 ], [ 0, %118 ]
  %122 = phi i32 [ %128, %120 ], [ %116, %118 ]
  %123 = sub i32 0, %122
  %124 = urem i32 %123, 10
  %125 = mul nsw i32 %121, 10
  %126 = add i32 %124, %125
  %127 = udiv i32 %123, 10
  %128 = sub nsw i32 0, %127
  %129 = icmp ult i32 %123, 10
  br i1 %129, label %130, label %120, !llvm.loop !11

130:                                              ; preds = %120
  %131 = sub nsw i32 0, %126
  br label %140

132:                                              ; preds = %112, %132
  %133 = phi i32 [ %137, %132 ], [ 0, %112 ]
  %134 = phi i32 [ %138, %132 ], [ %116, %112 ]
  %135 = urem i32 %134, 10
  %136 = mul nsw i32 %133, 10
  %137 = add nsw i32 %135, %136
  %138 = udiv i32 %134, 10
  %139 = icmp ult i32 %134, 10
  br i1 %139, label %140, label %132, !llvm.loop !9

140:                                              ; preds = %132, %130, %118
  %141 = phi i32 [ %131, %130 ], [ 0, %118 ], [ %137, %132 ]
  %142 = call i32 (i8*, ...) @printf(i8* nonnull dereferenceable(1) getelementptr inbounds ([4 x i8], [4 x i8]* @.str.1, i64 0, i64 0), i32 %141)
  %143 = call i32 (i8*, ...) @__isoc99_scanf(i8* getelementptr inbounds ([3 x i8], [3 x i8]* @.str, i64 0, i64 0), i32* nonnull %1)
  %144 = load i32, i32* %1, align 4, !tbaa !5
  %145 = icmp sgt i32 %144, 0
  br i1 %145, label %160, label %146

146:                                              ; preds = %140
  %147 = icmp slt i32 %144, 0
  br i1 %147, label %148, label %168

148:                                              ; preds = %146, %148
  %149 = phi i32 [ %154, %148 ], [ 0, %146 ]
  %150 = phi i32 [ %156, %148 ], [ %144, %146 ]
  %151 = sub i32 0, %150
  %152 = urem i32 %151, 10
  %153 = mul nsw i32 %149, 10
  %154 = add i32 %152, %153
  %155 = udiv i32 %151, 10
  %156 = sub nsw i32 0, %155
  %157 = icmp ult i32 %151, 10
  br i1 %157, label %158, label %148, !llvm.loop !11

158:                                              ; preds = %148
  %159 = sub nsw i32 0, %154
  br label %168

160:                                              ; preds = %140, %160
  %161 = phi i32 [ %165, %160 ], [ 0, %140 ]
  %162 = phi i32 [ %166, %160 ], [ %144, %140 ]
  %163 = urem i32 %162, 10
  %164 = mul nsw i32 %161, 10
  %165 = add nsw i32 %163, %164
  %166 = udiv i32 %162, 10
  %167 = icmp ult i32 %162, 10
  br i1 %167, label %168, label %160, !llvm.loop !9

168:                                              ; preds = %160, %158, %146
  %169 = phi i32 [ %159, %158 ], [ 0, %146 ], [ %165, %160 ]
  %170 = call i32 (i8*, ...) @printf(i8* nonnull dereferenceable(1) getelementptr inbounds ([4 x i8], [4 x i8]* @.str.1, i64 0, i64 0), i32 %169)
  call void @llvm.lifetime.end.p0i8(i64 4, i8* nonnull %2) #4
  ret i32 0
}

; Function Attrs: argmemonly mustprogress nofree nosync nounwind willreturn
declare void @llvm.lifetime.start.p0i8(i64 immarg, i8* nocapture) #1

; Function Attrs: nofree nounwind
declare noundef i32 @__isoc99_scanf(i8* nocapture noundef readonly, ...) local_unnamed_addr #2

; Function Attrs: nofree norecurse nosync nounwind readnone sspstrong uwtable
define dso_local i32 @reverse(i32 %0) local_unnamed_addr #3 {
  %2 = icmp sgt i32 %0, 0
  br i1 %2, label %3, label %11

3:                                                ; preds = %1, %3
  %4 = phi i32 [ %8, %3 ], [ 0, %1 ]
  %5 = phi i32 [ %9, %3 ], [ %0, %1 ]
  %6 = urem i32 %5, 10
  %7 = mul nsw i32 %4, 10
  %8 = add nsw i32 %7, %6
  %9 = udiv i32 %5, 10
  %10 = icmp ult i32 %5, 10
  br i1 %10, label %25, label %3, !llvm.loop !9

11:                                               ; preds = %1
  %12 = icmp slt i32 %0, 0
  br i1 %12, label %13, label %25

13:                                               ; preds = %11, %13
  %14 = phi i32 [ %19, %13 ], [ 0, %11 ]
  %15 = phi i32 [ %21, %13 ], [ %0, %11 ]
  %16 = sub i32 0, %15
  %17 = urem i32 %16, 10
  %18 = mul nsw i32 %14, 10
  %19 = add i32 %18, %17
  %20 = udiv i32 %16, 10
  %21 = sub nsw i32 0, %20
  %22 = icmp ult i32 %16, 10
  br i1 %22, label %23, label %13, !llvm.loop !11

23:                                               ; preds = %13
  %24 = sub nsw i32 0, %19
  br label %25

25:                                               ; preds = %3, %11, %23
  %26 = phi i32 [ %24, %23 ], [ 0, %11 ], [ %8, %3 ]
  ret i32 %26
}

; Function Attrs: nofree nounwind
declare noundef i32 @printf(i8* nocapture noundef readonly, ...) local_unnamed_addr #2

; Function Attrs: argmemonly mustprogress nofree nosync nounwind willreturn
declare void @llvm.lifetime.end.p0i8(i64 immarg, i8* nocapture) #1


!llvm.module.flags = !{!0, !1, !2, !3}
!llvm.ident = !{!4}

!0 = !{i32 1, !"wchar_size", i32 4}
!1 = !{i32 7, !"PIC Level", i32 2}
!2 = !{i32 7, !"PIE Level", i32 2}
!3 = !{i32 7, !"uwtable", i32 1}
!4 = !{!"clang version 13.0.0"}
!5 = !{!6, !6, i64 0}
!6 = !{!"int", !7, i64 0}
!7 = !{!"omnipotent char", !8, i64 0}
!8 = !{!"Simple C/C++ TBAA"}
!9 = distinct !{!9, !10}
!10 = !{!"llvm.loop.mustprogress"}
!11 = distinct !{!11, !10}
